target datalayout = "e-m:e-p270:32:32-p271:32:32-p272:64:64-i64:64-i128:128-f80:128-n8:16:32:64-S128"
target triple = "x86_64-pc-linux-gnu"

%struct.SRP_user_pwd_st = type { ptr, ptr, ptr, ptr, ptr, ptr }

@.str = private unnamed_addr constant [32 x i8] c"../openssl/crypto/srp/srp_vfy.c\00", align 1

; Function Attrs: nounwind uwtable
define ptr @SRP_user_pwd_new() #0 {
  %1 = alloca ptr, align 8
  %2 = alloca ptr, align 8
  %3 = alloca i32, align 4
  call void @llvm.lifetime.start.p0(i64 8, ptr %2) #7
  %4 = call noalias ptr @CRYPTO_malloc(i64 noundef 48, ptr noundef @.str, i32 noundef 194)
  store ptr %4, ptr %2, align 8, !tbaa !3
  %5 = icmp eq ptr %4, null
  br i1 %5, label %6, label %7

6:                                                ; preds = %0
  store ptr null, ptr %1, align 8
  store i32 1, ptr %3, align 4
  br label %21

7:                                                ; preds = %0
  %8 = load ptr, ptr %2, align 8, !tbaa !3
  %9 = getelementptr inbounds nuw %struct.SRP_user_pwd_st, ptr %8, i32 0, i32 4
  store ptr null, ptr %9, align 8, !tbaa !15
  %10 = load ptr, ptr %2, align 8, !tbaa !3
  %11 = getelementptr inbounds nuw %struct.SRP_user_pwd_st, ptr %10, i32 0, i32 3
  store ptr null, ptr %11, align 8, !tbaa !16
  %12 = load ptr, ptr %2, align 8, !tbaa !3
  %13 = getelementptr inbounds nuw %struct.SRP_user_pwd_st, ptr %12, i32 0, i32 1
  store ptr null, ptr %13, align 8, !tbaa !8
  %14 = load ptr, ptr %2, align 8, !tbaa !3
  %15 = getelementptr inbounds nuw %struct.SRP_user_pwd_st, ptr %14, i32 0, i32 2
  store ptr null, ptr %15, align 8, !tbaa !12
  %16 = load ptr, ptr %2, align 8, !tbaa !3
  %17 = getelementptr inbounds nuw %struct.SRP_user_pwd_st, ptr %16, i32 0, i32 0
  store ptr null, ptr %17, align 8, !tbaa !13
  %18 = load ptr, ptr %2, align 8, !tbaa !3
  %19 = getelementptr inbounds nuw %struct.SRP_user_pwd_st, ptr %18, i32 0, i32 5
  store ptr null, ptr %19, align 8, !tbaa !14
  %20 = load ptr, ptr %2, align 8, !tbaa !3
  store ptr %20, ptr %1, align 8
  store i32 1, ptr %3, align 4
  br label %21

21:                                               ; preds = %7, %6
  call void @llvm.lifetime.end.p0(i64 8, ptr %2) #7
  %22 = load ptr, ptr %1, align 8
  ret ptr %22
}