; Function Attrs: nounwind uwtable
define noalias ptr @SRP_user_pwd_new() local_unnamed_addr #0 {
  %1 = tail call noalias ptr @CRYPTO_malloc(i64 noundef 48, ptr noundef nonnull @.str, i32 noundef 194) #7
  %2 = icmp eq ptr %1, null
  br i1 %2, label %4, label %3

3:                                                ; preds = %0
  tail call void @llvm.memset.p0.i64(ptr noundef nonnull align 8 dereferenceable(48) %1, i8 0, i64 48, i1 false)
  br label %4

4:                                                ; preds = %0, %3
  ret ptr %1
}